; Function Attrs: mustprogress uwtable
define void @_ZNK5Ipopt15ExpansionMatrix18ComputeRowAMaxImplERNS_6VectorEb(ptr noundef nonnull readonly align 8 captures(none) dereferenceable(80) %0, ptr noundef nonnull align 8 dereferenceable(205) %1, i1 zeroext %2) unnamed_addr #0 align 2 {
  %4 = getelementptr inbounds nuw i8, ptr %1, i64 232
  %5 = load i8, ptr %4, align 8, !tbaa !32, !range !42, !noundef !43
  %6 = trunc nuw i8 %5 to i1
  br i1 %6, label %7, label %12

7:                                                ; preds = %3
  %8 = getelementptr inbounds nuw i8, ptr %1, i64 233
  %9 = load i8, ptr %8, align 1, !tbaa !44, !range !42, !noundef !43
  %10 = trunc nuw i8 %9 to i1
  br i1 %10, label %11, label %12

11:                                               ; preds = %7
  tail call void @_ZN5Ipopt11DenseVector22set_values_from_scalarEv(ptr noundef nonnull align 8 dereferenceable(248) %1)
  br label %12

12:                                               ; preds = %11, %7, %3
  tail call void @_ZN5Ipopt12TaggedObject13ObjectChangedEv(ptr noundef nonnull align 8 dereferenceable(248) %1)
  store i8 1, ptr %4, align 8, !tbaa !32
  %13 = getelementptr inbounds nuw i8, ptr %1, i64 233
  store i8 0, ptr %13, align 1, !tbaa !44
  %14 = getelementptr inbounds nuw i8, ptr %1, i64 216
  %15 = load ptr, ptr %14, align 8, !tbaa !45
  %16 = icmp eq ptr %15, null
  br i1 %16, label %17, label %_ZN5Ipopt11DenseVector6ValuesEv.exit

17:                                               ; preds = %12
  %18 = getelementptr inbounds nuw i8, ptr %1, i64 208
  %19 = load ptr, ptr %18, align 8, !tbaa !46
  %20 = getelementptr inbounds nuw i8, ptr %19, i64 12
  %21 = load i32, ptr %20, align 4, !tbaa !47
  %22 = icmp sgt i32 %21, 0
  br i1 %22, label %23, label %_ZNK5Ipopt16DenseVectorSpace23AllocateInternalStorageEv.exit.i.i

23:                                               ; preds = %17
  %24 = zext nneg i32 %21 to i64
  %25 = shl nuw nsw i64 %24, 3
  %26 = tail call noalias noundef nonnull ptr @_Znam(i64 noundef %25) #14
  br label %_ZNK5Ipopt16DenseVectorSpace23AllocateInternalStorageEv.exit.i.i

_ZNK5Ipopt16DenseVectorSpace23AllocateInternalStorageEv.exit.i.i: ; preds = %23, %17
  %.0.i.i.i = phi ptr [ %26, %23 ], [ null, %17 ]
  store ptr %.0.i.i.i, ptr %14, align 8, !tbaa !45
  br label %_ZN5Ipopt11DenseVector6ValuesEv.exit

_ZN5Ipopt11DenseVector6ValuesEv.exit:             ; preds = %12, %_ZNK5Ipopt16DenseVectorSpace23AllocateInternalStorageEv.exit.i.i
  %27 = phi ptr [ %15, %12 ], [ %.0.i.i.i, %_ZNK5Ipopt16DenseVectorSpace23AllocateInternalStorageEv.exit.i.i ]
  %28 = getelementptr inbounds nuw i8, ptr %0, i64 72
  %29 = load ptr, ptr %28, align 8, !tbaa !25
  %30 = getelementptr inbounds nuw i8, ptr %29, i64 24
  %31 = load ptr, ptr %30, align 8, !tbaa !28
  %32 = getelementptr inbounds nuw i8, ptr %0, i64 56
  %33 = load ptr, ptr %32, align 8, !tbaa !10
  %34 = getelementptr inbounds nuw i8, ptr %33, i64 16
  %35 = load i32, ptr %34, align 8, !tbaa !50
  %36 = icmp sgt i32 %35, 0
  br i1 %36, label %.lr.ph.preheader, label %._crit_edge

.lr.ph.preheader:                                 ; preds = %_ZN5Ipopt11DenseVector6ValuesEv.exit
  %wide.trip.count = zext nneg i32 %35 to i64
  br label %.lr.ph

._crit_edge:                                      ; preds = %.lr.ph, %_ZN5Ipopt11DenseVector6ValuesEv.exit
  ret void

.lr.ph:                                           ; preds = %.lr.ph.preheader, %.lr.ph
  %indvars.iv = phi i64 [ 0, %.lr.ph.preheader ], [ %indvars.iv.next, %.lr.ph ]
  %37 = getelementptr inbounds nuw i32, ptr %31, i64 %indvars.iv
  %38 = load i32, ptr %37, align 4, !tbaa !51
  %39 = sext i32 %38 to i64
  %40 = getelementptr inbounds double, ptr %27, i64 %39
  %41 = load double, ptr %40, align 8, !tbaa !52
  %42 = fcmp olt double %41, 1.000000e+00
  %.sroa.speculated.i = select i1 %42, double 1.000000e+00, double %41
  store double %.sroa.speculated.i, ptr %40, align 8, !tbaa !52
  %indvars.iv.next = add nuw nsw i64 %indvars.iv, 1
  %exitcond.not = icmp eq i64 %indvars.iv.next, %wide.trip.count
  br i1 %exitcond.not, label %._crit_edge, label %.lr.ph, !llvm.loop !75
}